; Function Attrs: mustprogress uwtable
define noundef i32 @_ZN3zmq12ws_decoder_t10mask_readyEPKh(ptr noundef nonnull align 8 dereferenceable(208) %this, ptr noundef %read_from_) #0 align 2 {
entry:
  %_mask = getelementptr inbounds i8, ptr %this, i64 204
  %_tmpbuf = getelementptr inbounds i8, ptr %this, i64 88
  %0 = load i32, ptr %_tmpbuf, align 8
  store i32 %0, ptr %_mask, align 4
  %_opcode = getelementptr inbounds i8, ptr %this, i64 200
  %1 = load i32, ptr %_opcode, align 8
  %cmp = icmp eq i32 %1, 2
  br i1 %cmp, label %if.then, label %if.else

if.then:                                          ; preds = %entry
  %_size = getelementptr inbounds i8, ptr %this, i64 192
  %2 = load i64, ptr %_size, align 8
  %cmp3 = icmp eq i64 %2, 0
  br i1 %cmp3, label %return, label %if.end

if.end:                                           ; preds = %if.then
  %_read_pos.i = getelementptr inbounds i8, ptr %this, i64 24
  store ptr %_tmpbuf, ptr %_read_pos.i, align 8
  %_to_read.i = getelementptr inbounds i8, ptr %this, i64 32
  store i64 1, ptr %_to_read.i, align 8
  %_next.i = getelementptr inbounds i8, ptr %this, i64 8
  store i64 ptrtoint (ptr @_ZN3zmq12ws_decoder_t11flags_readyEPKh to i64), ptr %_next.i, align 8
  %_next.repack1.i = getelementptr inbounds i8, ptr %this, i64 16
  store i64 0, ptr %_next.repack1.i, align 8
  br label %return

if.else:                                          ; preds = %entry
  %call = tail call noundef i32 @_ZN3zmq12ws_decoder_t10size_readyEPKh(ptr noundef nonnull align 8 dereferenceable(208) %this, ptr noundef %read_from_), !range !4
  br label %return

return:                                           ; preds = %if.then, %if.end, %if.else
  %retval.0 = phi i32 [ 0, %if.end ], [ %call, %if.else ], [ -1, %if.then ]
  ret i32 %retval.0
}